; Function Attrs: nounwind sspstrong uwtable
define internal noundef i64 @passwd_ensure(i64 %0) #0 {
  tail call void @endpwent() #13
  %2 = atomicrmw volatile xchg ptr @passwd_blocking, i32 0 seq_cst, align 4
  %.not = icmp eq i32 %2, 1
  br i1 %.not, label %5, label %3

3:                                                ; preds = %1
  %4 = load i64, ptr @rb_eRuntimeError, align 8, !tbaa !6
  tail call void (i64, ptr, ...) @rb_raise(i64 noundef %4, ptr noundef nonnull @.str.219) #15
  unreachable

5:                                                ; preds = %1
  ret i64 4
}